	.file	"processed.cpp"
	.text
	.section	.rodata
	.type	_ZStL19piecewise_construct, @object
	.size	_ZStL19piecewise_construct, 1
_ZStL19piecewise_construct:
	.zero	1
	.local	_ZStL8__ioinit
	.comm	_ZStL8__ioinit,1,1
	.text
	.globl	_Z14squareCallbacki
	.type	_Z14squareCallbacki, @function
_Z14squareCallbacki:
.LFB1493:
	.cfi_startproc
	pushq	%rbp
	.cfi_def_cfa_offset 16
	.cfi_offset 6, -16
	movq	%rsp, %rbp
	.cfi_def_cfa_register 6
	movl	%edi, -4(%rbp)
	movl	-4(%rbp), %eax
	imull	-4(%rbp), %eax
	popq	%rbp
	.cfi_def_cfa 7, 8
	ret
	.cfi_endproc
.LFE1493:
	.size	_Z14squareCallbacki, .-_Z14squareCallbacki
	.globl	_Z12cubeCallbacki
	.type	_Z12cubeCallbacki, @function
_Z12cubeCallbacki:
.LFB1494:
	.cfi_startproc
	pushq	%rbp
	.cfi_def_cfa_offset 16
	.cfi_offset 6, -16
	movq	%rsp, %rbp
	.cfi_def_cfa_register 6
	movl	%edi, -4(%rbp)
	movl	-4(%rbp), %eax
	imull	-4(%rbp), %eax
	imull	-4(%rbp), %eax
	popq	%rbp
	.cfi_def_cfa 7, 8
	ret
	.cfi_endproc
.LFE1494:
	.size	_Z12cubeCallbacki, .-_Z12cubeCallbacki
	.globl	_Z6doMathiPFiiE
	.type	_Z6doMathiPFiiE, @function
_Z6doMathiPFiiE:
.LFB1495:
	.cfi_startproc
	pushq	%rbp
	.cfi_def_cfa_offset 16
	.cfi_offset 6, -16
	movq	%rsp, %rbp
	.cfi_def_cfa_register 6
	subq	$16, %rsp
	movl	%edi, -4(%rbp)
	movq	%rsi, -16(%rbp)
	movl	-4(%rbp), %edx
	movq	-16(%rbp), %rax
	movl	%edx, %edi
	call	*%rax
	leave
	.cfi_def_cfa 7, 8
	ret
	.cfi_endproc
.LFE1495:
	.size	_Z6doMathiPFiiE, .-_Z6doMathiPFiiE
	.section	.rodata
	.align 8
.LC0:
	.string	"Math program -- the value of 5: "
.LC1:
	.string	"-> squared is: "
.LC2:
	.string	"-> cubed is: "
	.text
	.globl	main
	.type	main, @function
main:
.LFB1496:
	.cfi_startproc
	pushq	%rbp
	.cfi_def_cfa_offset 16
	.cfi_offset 6, -16
	movq	%rsp, %rbp
	.cfi_def_cfa_register 6
	pushq	%rbx
	subq	$8, %rsp
	.cfi_offset 3, -24
	movl	$.LC0, %esi
	movl	$_ZSt4cout, %edi
	call	_ZStlsISt11char_traitsIcEERSt13basic_ostreamIcT_ES5_PKc
	movl	$_ZSt4endlIcSt11char_traitsIcEERSt13basic_ostreamIT_T0_ES6_, %esi
	movq	%rax, %rdi
	call	_ZNSolsEPFRSoS_E
	movl	$.LC1, %esi
	movl	$_ZSt4cout, %edi
	call	_ZStlsISt11char_traitsIcEERSt13basic_ostreamIcT_ES5_PKc
	movq	%rax, %rbx
	movl	$_Z14squareCallbacki, %esi
	movl	$5, %edi
	call	_Z6doMathiPFiiE
	movl	%eax, %esi
	movq	%rbx, %rdi
	call	_ZNSolsEi
	movl	$_ZSt4endlIcSt11char_traitsIcEERSt13basic_ostreamIT_T0_ES6_, %esi
	movq	%rax, %rdi
	call	_ZNSolsEPFRSoS_E
	movl	$.LC2, %esi
	movl	$_ZSt4cout, %edi
	call	_ZStlsISt11char_traitsIcEERSt13basic_ostreamIcT_ES5_PKc
	movq	%rax, %rbx
	movl	$_Z12cubeCallbacki, %esi
	movl	$5, %edi
	call	_Z6doMathiPFiiE
	movl	%eax, %esi
	movq	%rbx, %rdi
	call	_ZNSolsEi
	movl	$_ZSt4endlIcSt11char_traitsIcEERSt13basic_ostreamIT_T0_ES6_, %esi
	movq	%rax, %rdi
	call	_ZNSolsEPFRSoS_E
	movl	$0, %eax
	addq	$8, %rsp
	popq	%rbx
	popq	%rbp
	.cfi_def_cfa 7, 8
	ret
	.cfi_endproc
.LFE1496:
	.size	main, .-main
	.type	_Z41__static_initialization_and_destruction_0ii, @function
_Z41__static_initialization_and_destruction_0ii:
.LFB1985:
	.cfi_startproc
	pushq	%rbp
	.cfi_def_cfa_offset 16
	.cfi_offset 6, -16
	movq	%rsp, %rbp
	.cfi_def_cfa_register 6
	subq	$16, %rsp
	movl	%edi, -4(%rbp)
	movl	%esi, -8(%rbp)
	cmpl	$1, -4(%rbp)
	jne	.L11
	cmpl	$65535, -8(%rbp)
	jne	.L11
	movl	$_ZStL8__ioinit, %edi
	call	_ZNSt8ios_base4InitC1Ev
	movl	$__dso_handle, %edx
	movl	$_ZStL8__ioinit, %esi
	movl	$_ZNSt8ios_base4InitD1Ev, %edi
	call	__cxa_atexit
.L11:
	nop
	leave
	.cfi_def_cfa 7, 8
	ret
	.cfi_endproc
.LFE1985:
	.size	_Z41__static_initialization_and_destruction_0ii, .-_Z41__static_initialization_and_destruction_0ii
	.type	_GLOBAL__sub_I__Z14squareCallbacki, @function
_GLOBAL__sub_I__Z14squareCallbacki:
.LFB1986:
	.cfi_startproc
	pushq	%rbp
	.cfi_def_cfa_offset 16
	.cfi_offset 6, -16
	movq	%rsp, %rbp
	.cfi_def_cfa_register 6
	movl	$65535, %esi
	movl	$1, %edi
	call	_Z41__static_initialization_and_destruction_0ii
	popq	%rbp
	.cfi_def_cfa 7, 8
	ret
	.cfi_endproc
.LFE1986:
	.size	_GLOBAL__sub_I__Z14squareCallbacki, .-_GLOBAL__sub_I__Z14squareCallbacki
	.section	.init_array,"aw"
	.align 8
	.quad	_GLOBAL__sub_I__Z14squareCallbacki
	.hidden	__dso_handle
	.ident	"GCC: (GNU) 7.3.1 20180712 (Red Hat 7.3.1-6)"
	.section	.note.GNU-stack,"",@progbits
