	.file	"processed.cpp"
	.text
	.section	.rodata
	.type	_ZStL19piecewise_construct, @object
	.size	_ZStL19piecewise_construct, 1
_ZStL19piecewise_construct:
	.zero	1
	.local	_ZStL8__ioinit
	.comm	_ZStL8__ioinit,1,1
	.text
	.globl	_Z14threadFunctionPv
	.type	_Z14threadFunctionPv, @function
_Z14threadFunctionPv:
.LFB1493:
	.cfi_startproc
	pushq	%rbp
	.cfi_def_cfa_offset 16
	.cfi_offset 6, -16
	movq	%rsp, %rbp
	.cfi_def_cfa_register 6
	subq	$32, %rsp
	movq	%rdi, -24(%rbp)
	movq	-24(%rbp), %rax
	movq	%rax, -8(%rbp)
.L3:
	movq	-8(%rbp), %rax
	movl	(%rax), %eax
	cmpl	$4, %eax
	jg	.L2
	movl	$10, %edi
	call	usleep
	movq	-8(%rbp), %rax
	movl	(%rax), %eax
	leal	1(%rax), %edx
	movq	-8(%rbp), %rax
	movl	%edx, (%rax)
	jmp	.L3
.L2:
	movq	-8(%rbp), %rax
	leave
	.cfi_def_cfa 7, 8
	ret
	.cfi_endproc
.LFE1493:
	.size	_Z14threadFunctionPv, .-_Z14threadFunctionPv
	.section	.rodata
.LC0:
	.string	"Failed to create the thread"
.LC1:
	.string	"The value of x="
.LC2:
	.string	" and y="
.LC3:
	.string	"Final: x="
.LC4:
	.string	", y="
.LC5:
	.string	" and z="
	.text
	.globl	main
	.type	main, @function
main:
.LFB1494:
	.cfi_startproc
	pushq	%rbp
	.cfi_def_cfa_offset 16
	.cfi_offset 6, -16
	movq	%rsp, %rbp
	.cfi_def_cfa_register 6
	subq	$48, %rsp
	movl	$0, -20(%rbp)
	movl	$0, -4(%rbp)
	leaq	-20(%rbp), %rdx
	leaq	-32(%rbp), %rax
	movq	%rdx, %rcx
	movl	$_Z14threadFunctionPv, %edx
	movl	$0, %esi
	movq	%rax, %rdi
	call	pthread_create
	testl	%eax, %eax
	setne	%al
	testb	%al, %al
	je	.L6
	movl	$.LC0, %esi
	movl	$_ZSt4cout, %edi
	call	_ZStlsISt11char_traitsIcEERSt13basic_ostreamIcT_ES5_PKc
	movl	$_ZSt4endlIcSt11char_traitsIcEERSt13basic_ostreamIT_T0_ES6_, %esi
	movq	%rax, %rdi
	call	_ZNSolsEPFRSoS_E
	movl	$1, %eax
	jmp	.L9
.L6:
	cmpl	$4, -4(%rbp)
	jg	.L8
	movl	$.LC1, %esi
	movl	$_ZSt4cout, %edi
	call	_ZStlsISt11char_traitsIcEERSt13basic_ostreamIcT_ES5_PKc
	movq	%rax, %rdx
	movl	-20(%rbp), %eax
	movl	%eax, %esi
	movq	%rdx, %rdi
	call	_ZNSolsEi
	movl	$.LC2, %esi
	movq	%rax, %rdi
	call	_ZStlsISt11char_traitsIcEERSt13basic_ostreamIcT_ES5_PKc
	movq	%rax, %rcx
	movl	-4(%rbp), %eax
	leal	1(%rax), %edx
	movl	%edx, -4(%rbp)
	movl	%eax, %esi
	movq	%rcx, %rdi
	call	_ZNSolsEi
	movl	$_ZSt4endlIcSt11char_traitsIcEERSt13basic_ostreamIT_T0_ES6_, %esi
	movq	%rax, %rdi
	call	_ZNSolsEPFRSoS_E
	movl	$10, %edi
	call	usleep
	jmp	.L6
.L8:
	movq	-32(%rbp), %rax
	leaq	-40(%rbp), %rdx
	movq	%rdx, %rsi
	movq	%rax, %rdi
	call	pthread_join
	movq	-40(%rbp), %rax
	movq	%rax, -16(%rbp)
	movl	$.LC3, %esi
	movl	$_ZSt4cout, %edi
	call	_ZStlsISt11char_traitsIcEERSt13basic_ostreamIcT_ES5_PKc
	movq	%rax, %rdx
	movl	-20(%rbp), %eax
	movl	%eax, %esi
	movq	%rdx, %rdi
	call	_ZNSolsEi
	movl	$.LC4, %esi
	movq	%rax, %rdi
	call	_ZStlsISt11char_traitsIcEERSt13basic_ostreamIcT_ES5_PKc
	movq	%rax, %rdx
	movl	-4(%rbp), %eax
	movl	%eax, %esi
	movq	%rdx, %rdi
	call	_ZNSolsEi
	movl	$.LC5, %esi
	movq	%rax, %rdi
	call	_ZStlsISt11char_traitsIcEERSt13basic_ostreamIcT_ES5_PKc
	movq	%rax, %rdx
	movq	-16(%rbp), %rax
	movl	(%rax), %eax
	movl	%eax, %esi
	movq	%rdx, %rdi
	call	_ZNSolsEi
	movl	$_ZSt4endlIcSt11char_traitsIcEERSt13basic_ostreamIT_T0_ES6_, %esi
	movq	%rax, %rdi
	call	_ZNSolsEPFRSoS_E
	movl	$0, %eax
.L9:
	leave
	.cfi_def_cfa 7, 8
	ret
	.cfi_endproc
.LFE1494:
	.size	main, .-main
	.type	_Z41__static_initialization_and_destruction_0ii, @function
_Z41__static_initialization_and_destruction_0ii:
.LFB1983:
	.cfi_startproc
	pushq	%rbp
	.cfi_def_cfa_offset 16
	.cfi_offset 6, -16
	movq	%rsp, %rbp
	.cfi_def_cfa_register 6
	subq	$16, %rsp
	movl	%edi, -4(%rbp)
	movl	%esi, -8(%rbp)
	cmpl	$1, -4(%rbp)
	jne	.L12
	cmpl	$65535, -8(%rbp)
	jne	.L12
	movl	$_ZStL8__ioinit, %edi
	call	_ZNSt8ios_base4InitC1Ev
	movl	$__dso_handle, %edx
	movl	$_ZStL8__ioinit, %esi
	movl	$_ZNSt8ios_base4InitD1Ev, %edi
	call	__cxa_atexit
.L12:
	nop
	leave
	.cfi_def_cfa 7, 8
	ret
	.cfi_endproc
.LFE1983:
	.size	_Z41__static_initialization_and_destruction_0ii, .-_Z41__static_initialization_and_destruction_0ii
	.type	_GLOBAL__sub_I__Z14threadFunctionPv, @function
_GLOBAL__sub_I__Z14threadFunctionPv:
.LFB1984:
	.cfi_startproc
	pushq	%rbp
	.cfi_def_cfa_offset 16
	.cfi_offset 6, -16
	movq	%rsp, %rbp
	.cfi_def_cfa_register 6
	movl	$65535, %esi
	movl	$1, %edi
	call	_Z41__static_initialization_and_destruction_0ii
	popq	%rbp
	.cfi_def_cfa 7, 8
	ret
	.cfi_endproc
.LFE1984:
	.size	_GLOBAL__sub_I__Z14threadFunctionPv, .-_GLOBAL__sub_I__Z14threadFunctionPv
	.section	.init_array,"aw"
	.align 8
	.quad	_GLOBAL__sub_I__Z14threadFunctionPv
	.hidden	__dso_handle
	.ident	"GCC: (GNU) 7.3.1 20180712 (Red Hat 7.3.1-6)"
	.section	.note.GNU-stack,"",@progbits
