
sizeofvariables.o:     file format elf64-littleaarch64


Disassembly of section .text:

0000000000000000 <main>:
   0:	a9bc7bfd 	stp	x29, x30, [sp, #-64]!
   4:	910003fd 	mov	x29, sp
   8:	90000000 	adrp	x0, 0 <main>
   c:	91000000 	add	x0, x0, #0x0
  10:	fd400000 	ldr	d0, [x0]
  14:	fd001ba0 	str	d0, [x29, #48]
  18:	1e273000 	fmov	s0, #2.500000000000000000e+01
  1c:	bd002fa0 	str	s0, [x29, #44]
  20:	52804420 	mov	w0, #0x221                 	// #545
  24:	b9002ba0 	str	w0, [x29, #40]
  28:	d2800f60 	mov	x0, #0x7b                  	// #123
  2c:	f90013a0 	str	x0, [x29, #32]
  30:	52800820 	mov	w0, #0x41                  	// #65
  34:	39007fa0 	strb	w0, [x29, #31]
  38:	52800020 	mov	w0, #0x1                   	// #1
  3c:	3900ffa0 	strb	w0, [x29, #63]
  40:	fd401ba0 	ldr	d0, [x29, #48]
  44:	9100c3a1 	add	x1, x29, #0x30
  48:	90000000 	adrp	x0, 0 <main>
  4c:	91000000 	add	x0, x0, #0x0
  50:	aa0103e2 	mov	x2, x1
  54:	d2800101 	mov	x1, #0x8                   	// #8
  58:	94000000 	bl	0 <printf>
  5c:	bd402fa0 	ldr	s0, [x29, #44]
  60:	1e22c000 	fcvt	d0, s0
  64:	9100b3a1 	add	x1, x29, #0x2c
  68:	90000000 	adrp	x0, 0 <main>
  6c:	91000000 	add	x0, x0, #0x0
  70:	aa0103e2 	mov	x2, x1
  74:	d2800081 	mov	x1, #0x4                   	// #4
  78:	94000000 	bl	0 <printf>
  7c:	b9402ba1 	ldr	w1, [x29, #40]
  80:	b9402ba2 	ldr	w2, [x29, #40]
  84:	b9402ba3 	ldr	w3, [x29, #40]
  88:	9100a3a4 	add	x4, x29, #0x28
  8c:	90000000 	adrp	x0, 0 <main>
  90:	91000000 	add	x0, x0, #0x0
  94:	aa0403e5 	mov	x5, x4
  98:	d2800084 	mov	x4, #0x4                   	// #4
  9c:	94000000 	bl	0 <printf>
  a0:	f94013a1 	ldr	x1, [x29, #32]
  a4:	910083a2 	add	x2, x29, #0x20
  a8:	90000000 	adrp	x0, 0 <main>
  ac:	91000000 	add	x0, x0, #0x0
  b0:	aa0203e3 	mov	x3, x2
  b4:	d2800102 	mov	x2, #0x8                   	// #8
  b8:	94000000 	bl	0 <printf>
  bc:	39407fa0 	ldrb	w0, [x29, #31]
  c0:	2a0003e4 	mov	w4, w0
  c4:	91007fa1 	add	x1, x29, #0x1f
  c8:	90000000 	adrp	x0, 0 <main>
  cc:	91000000 	add	x0, x0, #0x0
  d0:	aa0103e3 	mov	x3, x1
  d4:	d2800022 	mov	x2, #0x1                   	// #1
  d8:	2a0403e1 	mov	w1, w4
  dc:	94000000 	bl	0 <printf>
  e0:	3940ffa1 	ldrb	w1, [x29, #63]
  e4:	3940ffa2 	ldrb	w2, [x29, #63]
  e8:	90000000 	adrp	x0, 0 <main>
  ec:	91000000 	add	x0, x0, #0x0
  f0:	94000000 	bl	0 <printf>
  f4:	52800000 	mov	w0, #0x0                   	// #0
  f8:	a8c47bfd 	ldp	x29, x30, [sp], #64
  fc:	d65f03c0 	ret
